target datalayout = "e-m:e-p270:32:32-p271:32:32-p272:64:64-i64:64-i128:128-f80:128-n8:16:32:64-S128"
target triple = "x86_64-unknown-linux-gnu"

%struct.QTailQLink = type { ptr, ptr }
%struct.BlockDriverState = type { i32, i8, i8, i8, i8, i8, ptr, ptr, ptr, %struct.anon.0, i8, [4096 x i8], [4096 x i8], [4096 x i8], [16 x i8], ptr, [4096 x i8], %struct.BlockLimits, i32, i32, i32, i32, [32 x i8], %union.anon, %union.anon.1, %union.anon.2, i32, [16 x %struct.anon.3], ptr, %struct.anon.4, ptr, ptr, %struct.anon.5, ptr, ptr, i32, ptr, i64, i64, %struct.QemuMutex, %struct.anon.6, %struct.Stat64, i32, i32, i32, i32, i32, i32, %struct.QemuMutex, %struct.anon.7, %struct.CoQueue, i8, i32, i8, %struct.CoMutex, ptr, ptr }
%struct.anon.0 = type { ptr }
%struct.BlockLimits = type { i32, i64, i32, i64, i32, i32, i32, i64, i32, i64, i64, i32, i8, i32, i32, i32, i32, i32, i32, i32 }
%union.anon = type { %struct.QTailQLink }
%union.anon.1 = type { %struct.QTailQLink }
%union.anon.2 = type { %struct.QTailQLink }
%struct.anon.3 = type { ptr }
%struct.anon.4 = type { ptr }
%struct.anon.5 = type { ptr }
%struct.anon.6 = type { ptr }
%struct.Stat64 = type { i64 }
%struct.QemuMutex = type { %union.pthread_mutex_t, i8 }
%union.pthread_mutex_t = type { %struct.__pthread_mutex_s }
%struct.__pthread_mutex_s = type { i32, i32, i32, i32, i32, i16, i16, %struct.__pthread_internal_list }
%struct.__pthread_internal_list = type { ptr, ptr }
%struct.anon.7 = type { ptr }
%struct.CoQueue = type { %struct.anon.8 }
%struct.anon.8 = type { ptr, ptr }
%struct.CoMutex = type { i32, ptr, %struct.anon.9, %struct.anon.9, i32, i32, ptr }
%struct.anon.9 = type { ptr }
%struct.BDRVBlkdebugState = type { i64, i64, i64, i64, i64, i64, ptr, i64, i64, i32, [48 x %struct.anon.10], %struct.anon.11, %struct.anon.12, %struct.QemuMutex }
%struct.anon.10 = type { ptr }
%struct.anon.11 = type { ptr, ptr }
%struct.anon.12 = type { ptr }

; Function Attrs: nounwind sspstrong uwtable
define internal void @blkdebug_refresh_limits(ptr noundef %bs, ptr noundef %errp) #0 {
entry:
  %bs.addr = alloca ptr, align 8
  %errp.addr = alloca ptr, align 8
  %s = alloca ptr, align 8
  store ptr %bs, ptr %bs.addr, align 8
  store ptr %errp, ptr %errp.addr, align 8
  %0 = load ptr, ptr %bs.addr, align 8
  %opaque = getelementptr inbounds %struct.BlockDriverState, ptr %0, i32 0, i32 7
  %1 = load ptr, ptr %opaque, align 8
  store ptr %1, ptr %s, align 8
  %2 = load ptr, ptr %s, align 8
  %align = getelementptr inbounds %struct.BDRVBlkdebugState, ptr %2, i32 0, i32 0
  %3 = load i64, ptr %align, align 8
  %tobool = icmp ne i64 %3, 0
  br i1 %tobool, label %if.then, label %if.end

if.then:                                          ; preds = %entry
  %4 = load ptr, ptr %s, align 8
  %align1 = getelementptr inbounds %struct.BDRVBlkdebugState, ptr %4, i32 0, i32 0
  %5 = load i64, ptr %align1, align 8
  %conv = trunc i64 %5 to i32
  %6 = load ptr, ptr %bs.addr, align 8
  %bl = getelementptr inbounds %struct.BlockDriverState, ptr %6, i32 0, i32 17
  %request_alignment = getelementptr inbounds %struct.BlockLimits, ptr %bl, i32 0, i32 0
  store i32 %conv, ptr %request_alignment, align 8
  br label %if.end

if.end:                                           ; preds = %if.then, %entry
  %7 = load ptr, ptr %s, align 8
  %max_transfer = getelementptr inbounds %struct.BDRVBlkdebugState, ptr %7, i32 0, i32 1
  %8 = load i64, ptr %max_transfer, align 8
  %tobool2 = icmp ne i64 %8, 0
  br i1 %tobool2, label %if.then3, label %if.end8

if.then3:                                         ; preds = %if.end
  %9 = load ptr, ptr %s, align 8
  %max_transfer4 = getelementptr inbounds %struct.BDRVBlkdebugState, ptr %9, i32 0, i32 1
  %10 = load i64, ptr %max_transfer4, align 8
  %conv5 = trunc i64 %10 to i32
  %11 = load ptr, ptr %bs.addr, align 8
  %bl6 = getelementptr inbounds %struct.BlockDriverState, ptr %11, i32 0, i32 17
  %max_transfer7 = getelementptr inbounds %struct.BlockLimits, ptr %bl6, i32 0, i32 6
  store i32 %conv5, ptr %max_transfer7, align 8
  br label %if.end8

if.end8:                                          ; preds = %if.then3, %if.end
  %12 = load ptr, ptr %s, align 8
  %opt_write_zero = getelementptr inbounds %struct.BDRVBlkdebugState, ptr %12, i32 0, i32 2
  %13 = load i64, ptr %opt_write_zero, align 8
  %tobool9 = icmp ne i64 %13, 0
  br i1 %tobool9, label %if.then10, label %if.end14

if.then10:                                        ; preds = %if.end8
  %14 = load ptr, ptr %s, align 8
  %opt_write_zero11 = getelementptr inbounds %struct.BDRVBlkdebugState, ptr %14, i32 0, i32 2
  %15 = load i64, ptr %opt_write_zero11, align 8
  %conv12 = trunc i64 %15 to i32
  %16 = load ptr, ptr %bs.addr, align 8
  %bl13 = getelementptr inbounds %struct.BlockDriverState, ptr %16, i32 0, i32 17
  %pwrite_zeroes_alignment = getelementptr inbounds %struct.BlockLimits, ptr %bl13, i32 0, i32 4
  store i32 %conv12, ptr %pwrite_zeroes_alignment, align 8
  br label %if.end14

if.end14:                                         ; preds = %if.then10, %if.end8
  %17 = load ptr, ptr %s, align 8
  %max_write_zero = getelementptr inbounds %struct.BDRVBlkdebugState, ptr %17, i32 0, i32 3
  %18 = load i64, ptr %max_write_zero, align 8
  %tobool15 = icmp ne i64 %18, 0
  br i1 %tobool15, label %if.then16, label %if.end19

if.then16:                                        ; preds = %if.end14
  %19 = load ptr, ptr %s, align 8
  %max_write_zero17 = getelementptr inbounds %struct.BDRVBlkdebugState, ptr %19, i32 0, i32 3
  %20 = load i64, ptr %max_write_zero17, align 8
  %21 = load ptr, ptr %bs.addr, align 8
  %bl18 = getelementptr inbounds %struct.BlockDriverState, ptr %21, i32 0, i32 17
  %max_pwrite_zeroes = getelementptr inbounds %struct.BlockLimits, ptr %bl18, i32 0, i32 3
  store i64 %20, ptr %max_pwrite_zeroes, align 8
  br label %if.end19

if.end19:                                         ; preds = %if.then16, %if.end14
  %22 = load ptr, ptr %s, align 8
  %opt_discard = getelementptr inbounds %struct.BDRVBlkdebugState, ptr %22, i32 0, i32 4
  %23 = load i64, ptr %opt_discard, align 8
  %tobool20 = icmp ne i64 %23, 0
  br i1 %tobool20, label %if.then21, label %if.end25

if.then21:                                        ; preds = %if.end19
  %24 = load ptr, ptr %s, align 8
  %opt_discard22 = getelementptr inbounds %struct.BDRVBlkdebugState, ptr %24, i32 0, i32 4
  %25 = load i64, ptr %opt_discard22, align 8
  %conv23 = trunc i64 %25 to i32
  %26 = load ptr, ptr %bs.addr, align 8
  %bl24 = getelementptr inbounds %struct.BlockDriverState, ptr %26, i32 0, i32 17
  %pdiscard_alignment = getelementptr inbounds %struct.BlockLimits, ptr %bl24, i32 0, i32 2
  store i32 %conv23, ptr %pdiscard_alignment, align 8
  br label %if.end25

if.end25:                                         ; preds = %if.then21, %if.end19
  %27 = load ptr, ptr %s, align 8
  %max_discard = getelementptr inbounds %struct.BDRVBlkdebugState, ptr %27, i32 0, i32 5
  %28 = load i64, ptr %max_discard, align 8
  %tobool26 = icmp ne i64 %28, 0
  br i1 %tobool26, label %if.then27, label %if.end30

if.then27:                                        ; preds = %if.end25
  %29 = load ptr, ptr %s, align 8
  %max_discard28 = getelementptr inbounds %struct.BDRVBlkdebugState, ptr %29, i32 0, i32 5
  %30 = load i64, ptr %max_discard28, align 8
  %31 = load ptr, ptr %bs.addr, align 8
  %bl29 = getelementptr inbounds %struct.BlockDriverState, ptr %31, i32 0, i32 17
  %max_pdiscard = getelementptr inbounds %struct.BlockLimits, ptr %bl29, i32 0, i32 1
  store i64 %30, ptr %max_pdiscard, align 8
  br label %if.end30

if.end30:                                         ; preds = %if.then27, %if.end25
  ret void
}