; Function Attrs: mustprogress nofree norecurse nosync nounwind sspstrong willreturn memory(read, argmem: readwrite, inaccessiblemem: none) uwtable
define internal void @blkdebug_refresh_limits(ptr noundef captures(none) %bs, ptr readnone captures(none) %errp) #3 {
entry:
  %opaque = getelementptr inbounds nuw i8, ptr %bs, i64 24
  %0 = load ptr, ptr %opaque, align 8
  %1 = load i64, ptr %0, align 8
  %tobool.not = icmp eq i64 %1, 0
  br i1 %tobool.not, label %if.end, label %if.then

if.then:                                          ; preds = %entry
  %conv = trunc i64 %1 to i32
  %bl = getelementptr inbounds nuw i8, ptr %bs, i64 16464
  store i32 %conv, ptr %bl, align 8
  br label %if.end

if.end:                                           ; preds = %if.then, %entry
  %max_transfer = getelementptr inbounds nuw i8, ptr %0, i64 8
  %2 = load i64, ptr %max_transfer, align 8
  %tobool2.not = icmp eq i64 %2, 0
  br i1 %tobool2.not, label %if.end8, label %if.then3

if.then3:                                         ; preds = %if.end
  %conv5 = trunc i64 %2 to i32
  %max_transfer7 = getelementptr inbounds nuw i8, ptr %bs, i64 16504
  store i32 %conv5, ptr %max_transfer7, align 8
  br label %if.end8

if.end8:                                          ; preds = %if.then3, %if.end
  %opt_write_zero = getelementptr inbounds nuw i8, ptr %0, i64 16
  %3 = load i64, ptr %opt_write_zero, align 8
  %tobool9.not = icmp eq i64 %3, 0
  br i1 %tobool9.not, label %if.end14, label %if.then10

if.then10:                                        ; preds = %if.end8
  %conv12 = trunc i64 %3 to i32
  %pwrite_zeroes_alignment = getelementptr inbounds nuw i8, ptr %bs, i64 16496
  store i32 %conv12, ptr %pwrite_zeroes_alignment, align 8
  br label %if.end14

if.end14:                                         ; preds = %if.then10, %if.end8
  %max_write_zero = getelementptr inbounds nuw i8, ptr %0, i64 24
  %4 = load i64, ptr %max_write_zero, align 8
  %tobool15.not = icmp eq i64 %4, 0
  br i1 %tobool15.not, label %if.end19, label %if.then16

if.then16:                                        ; preds = %if.end14
  %max_pwrite_zeroes = getelementptr inbounds nuw i8, ptr %bs, i64 16488
  store i64 %4, ptr %max_pwrite_zeroes, align 8
  br label %if.end19

if.end19:                                         ; preds = %if.then16, %if.end14
  %opt_discard = getelementptr inbounds nuw i8, ptr %0, i64 32
  %5 = load i64, ptr %opt_discard, align 8
  %tobool20.not = icmp eq i64 %5, 0
  br i1 %tobool20.not, label %if.end25, label %if.then21

if.then21:                                        ; preds = %if.end19
  %conv23 = trunc i64 %5 to i32
  %pdiscard_alignment = getelementptr inbounds nuw i8, ptr %bs, i64 16480
  store i32 %conv23, ptr %pdiscard_alignment, align 8
  br label %if.end25

if.end25:                                         ; preds = %if.then21, %if.end19
  %max_discard = getelementptr inbounds nuw i8, ptr %0, i64 40
  %6 = load i64, ptr %max_discard, align 8
  %tobool26.not = icmp eq i64 %6, 0
  br i1 %tobool26.not, label %if.end30, label %if.then27

if.then27:                                        ; preds = %if.end25
  %max_pdiscard = getelementptr inbounds nuw i8, ptr %bs, i64 16472
  store i64 %6, ptr %max_pdiscard, align 8
  br label %if.end30

if.end30:                                         ; preds = %if.then27, %if.end25
  ret void
}